target datalayout = "e-m:e-p270:32:32-p271:32:32-p272:64:64-i64:64-i128:128-f80:128-n8:16:32:64-S128"
target triple = "x86_64-unknown-linux-gnu"

%"class.facebook::hermes::(anonymous namespace)::RuntimeStats" = type { %"struct.facebook::hermes::(anonymous namespace)::RuntimeStats::Statistic", %"struct.facebook::hermes::(anonymous namespace)::RuntimeStats::Statistic", %"struct.facebook::hermes::(anonymous namespace)::RuntimeStats::Statistic", ptr }
%"struct.facebook::hermes::(anonymous namespace)::RuntimeStats::Statistic" = type { double, double, i64 }
%"class.facebook::jsi::Value" = type { i32, %"union.facebook::jsi::Value::Data" }
%"union.facebook::jsi::Value::Data" = type { double }
%"class.facebook::hermes::(anonymous namespace)::RuntimeStats::RAIITimer" = type { %"class.hermes::PerfSection", ptr, ptr, ptr, %"class.std::chrono::time_point", %"class.std::chrono::duration.38" }
%"class.hermes::PerfSection" = type { i8 }
%"class.std::chrono::time_point" = type { %"class.std::chrono::duration" }
%"class.std::chrono::duration" = type { i64 }
%"class.std::chrono::duration.38" = type { i64 }
%"class.std::__shared_count" = type { ptr }
%"class.std::shared_ptr.10" = type { %"class.std::__shared_ptr.11" }
%"class.std::__shared_ptr.11" = type { ptr, %"class.std::__shared_count" }
%"class.facebook::jsi::DecoratedHostObject" = type { %"class.facebook::jsi::HostObject", ptr, %"class.std::shared_ptr.10" }
%"class.facebook::jsi::HostObject" = type { ptr }
%"class.facebook::hermes::(anonymous namespace)::TimedHostObject" = type { %"class.facebook::jsi::DecoratedHostObject", ptr }

@.str.18 = private unnamed_addr constant [15 x i8] c"HostObject.get\00", align 1

; Function Attrs: mustprogress nounwind uwtable
define linkonce_odr noundef ptr @_ZNKSt12__shared_ptrIN8facebook3jsi10HostObjectELN9__gnu_cxx12_Lock_policyE2EE3getEv(ptr noundef nonnull align 8 dereferenceable(16) %this) #1 comdat align 2 {
entry:
  %this.addr = alloca ptr, align 8
  store ptr %this, ptr %this.addr, align 8
  %this1 = load ptr, ptr %this.addr, align 8
  %_M_ptr = getelementptr inbounds %"class.std::__shared_ptr.11", ptr %this1, i32 0, i32 0
  %0 = load ptr, ptr %_M_ptr, align 8
  ret ptr %0
}

; Function Attrs: mustprogress nounwind uwtable
define linkonce_odr noundef ptr @_ZNKSt19__shared_ptr_accessIN8facebook3jsi10HostObjectELN9__gnu_cxx12_Lock_policyE2ELb0ELb0EE6_M_getEv(ptr noundef nonnull align 1 dereferenceable(1) %this) #1 comdat align 2 {
entry:
  %this.addr = alloca ptr, align 8
  store ptr %this, ptr %this.addr, align 8
  %this1 = load ptr, ptr %this.addr, align 8
  %call = call noundef ptr @_ZNKSt12__shared_ptrIN8facebook3jsi10HostObjectELN9__gnu_cxx12_Lock_policyE2EE3getEv(ptr noundef nonnull align 8 dereferenceable(16) %this1) #14
  ret ptr %call
}

; Function Attrs: mustprogress nounwind uwtable
define linkonce_odr hidden void @_ZN6hermes11PerfSectionC2EPKcS2_(ptr noundef nonnull align 1 dereferenceable(1) %this, ptr noundef %name, ptr noundef %category) unnamed_addr #1 comdat align 2 {
entry:
  %this.addr = alloca ptr, align 8
  %name.addr = alloca ptr, align 8
  %category.addr = alloca ptr, align 8
  store ptr %this, ptr %this.addr, align 8
  store ptr %name, ptr %name.addr, align 8
  store ptr %category, ptr %category.addr, align 8
  ret void
}

; Function Attrs: mustprogress nounwind uwtable
define linkonce_odr hidden noundef nonnull align 8 dereferenceable(8) ptr @_ZN8facebook3jsi19DecoratedHostObject16decoratedRuntimeEv(ptr noundef nonnull align 8 dereferenceable(32) %this) #1 comdat align 2 {
entry:
  %this.addr = alloca ptr, align 8
  store ptr %this, ptr %this.addr, align 8
  %this1 = load ptr, ptr %this.addr, align 8
  %drt_ = getelementptr inbounds %"class.facebook::jsi::DecoratedHostObject", ptr %this1, i32 0, i32 1
  %0 = load ptr, ptr %drt_, align 8
  ret ptr %0
}

; Function Attrs: mustprogress nounwind uwtable
define linkonce_odr noundef ptr @_ZNKSt19__shared_ptr_accessIN8facebook3jsi10HostObjectELN9__gnu_cxx12_Lock_policyE2ELb0ELb0EEptEv(ptr noundef nonnull align 1 dereferenceable(1) %this) #1 comdat align 2 {
entry:
  %this.addr = alloca ptr, align 8
  store ptr %this, ptr %this.addr, align 8
  %this1 = load ptr, ptr %this.addr, align 8
  %call = call noundef ptr @_ZNKSt19__shared_ptr_accessIN8facebook3jsi10HostObjectELN9__gnu_cxx12_Lock_policyE2ELb0ELb0EE6_M_getEv(ptr noundef nonnull align 1 dereferenceable(1) %this1) #14
  ret ptr %call
}

; Function Attrs: mustprogress uwtable
define internal void @_ZN8facebook6hermes12_GLOBAL__N_112RuntimeStats9RAIITimerC2EPKcRS2_RNS2_9StatisticE(ptr noundef nonnull align 8 dereferenceable(48) %this, ptr noundef %name, ptr noundef nonnull align 8 dereferenceable(80) %runtimeStats, ptr noundef nonnull align 8 dereferenceable(24) %stat) unnamed_addr #0 align 2 {
entry:
  %this.addr = alloca ptr, align 8
  %name.addr = alloca ptr, align 8
  %runtimeStats.addr = alloca ptr, align 8
  %stat.addr = alloca ptr, align 8
  store ptr %this, ptr %this.addr, align 8
  store ptr %name, ptr %name.addr, align 8
  store ptr %runtimeStats, ptr %runtimeStats.addr, align 8
  store ptr %stat, ptr %stat.addr, align 8
  %this1 = load ptr, ptr %this.addr, align 8
  %perfSection_ = getelementptr inbounds %"class.facebook::hermes::(anonymous namespace)::RuntimeStats::RAIITimer", ptr %this1, i32 0, i32 0
  %0 = load ptr, ptr %name.addr, align 8
  call void @_ZN6hermes11PerfSectionC2EPKcS2_(ptr noundef nonnull align 1 dereferenceable(1) %perfSection_, ptr noundef %0, ptr noundef null)
  %runtimeStats_ = getelementptr inbounds %"class.facebook::hermes::(anonymous namespace)::RuntimeStats::RAIITimer", ptr %this1, i32 0, i32 1
  %1 = load ptr, ptr %runtimeStats.addr, align 8
  store ptr %1, ptr %runtimeStats_, align 8
  %stat_ = getelementptr inbounds %"class.facebook::hermes::(anonymous namespace)::RuntimeStats::RAIITimer", ptr %this1, i32 0, i32 2
  %2 = load ptr, ptr %stat.addr, align 8
  store ptr %2, ptr %stat_, align 8
  %parent_ = getelementptr inbounds %"class.facebook::hermes::(anonymous namespace)::RuntimeStats::RAIITimer", ptr %this1, i32 0, i32 3
  %3 = load ptr, ptr %runtimeStats.addr, align 8
  %timerStack_ = getelementptr inbounds %"class.facebook::hermes::(anonymous namespace)::RuntimeStats", ptr %3, i32 0, i32 3
  %4 = load ptr, ptr %timerStack_, align 8
  store ptr %4, ptr %parent_, align 8
  %wallTimeStart_ = getelementptr inbounds %"class.facebook::hermes::(anonymous namespace)::RuntimeStats::RAIITimer", ptr %this1, i32 0, i32 4
  %call = call i64 @_ZNSt6chrono3_V212steady_clock3nowEv() #14
  %coerce.dive = getelementptr inbounds %"class.std::chrono::time_point", ptr %wallTimeStart_, i32 0, i32 0
  %coerce.dive2 = getelementptr inbounds %"class.std::chrono::duration", ptr %coerce.dive, i32 0, i32 0
  store i64 %call, ptr %coerce.dive2, align 8
  %cpuTimeStart_ = getelementptr inbounds %"class.facebook::hermes::(anonymous namespace)::RuntimeStats::RAIITimer", ptr %this1, i32 0, i32 5
  %call3 = call i64 @_ZN6hermes8oscompat15thread_cpu_timeEv()
  %coerce.dive4 = getelementptr inbounds %"class.std::chrono::duration.38", ptr %cpuTimeStart_, i32 0, i32 0
  store i64 %call3, ptr %coerce.dive4, align 8
  %5 = load ptr, ptr %runtimeStats.addr, align 8
  %timerStack_5 = getelementptr inbounds %"class.facebook::hermes::(anonymous namespace)::RuntimeStats", ptr %5, i32 0, i32 3
  store ptr %this1, ptr %timerStack_5, align 8
  %stat_6 = getelementptr inbounds %"class.facebook::hermes::(anonymous namespace)::RuntimeStats::RAIITimer", ptr %this1, i32 0, i32 2
  %6 = load ptr, ptr %stat_6, align 8
  %count = getelementptr inbounds %"struct.facebook::hermes::(anonymous namespace)::RuntimeStats::Statistic", ptr %6, i32 0, i32 2
  %7 = load i64, ptr %count, align 8
  %add = add i64 %7, 1
  store i64 %add, ptr %count, align 8
  %parent_7 = getelementptr inbounds %"class.facebook::hermes::(anonymous namespace)::RuntimeStats::RAIITimer", ptr %this1, i32 0, i32 3
  %8 = load ptr, ptr %parent_7, align 8
  %tobool = icmp ne ptr %8, null
  br i1 %tobool, label %if.end, label %if.then

if.then:                                          ; preds = %entry
  %runtimeStats_8 = getelementptr inbounds %"class.facebook::hermes::(anonymous namespace)::RuntimeStats::RAIITimer", ptr %this1, i32 0, i32 1
  %9 = load ptr, ptr %runtimeStats_8, align 8
  %total_ = getelementptr inbounds %"class.facebook::hermes::(anonymous namespace)::RuntimeStats", ptr %9, i32 0, i32 2
  %count9 = getelementptr inbounds %"struct.facebook::hermes::(anonymous namespace)::RuntimeStats::Statistic", ptr %total_, i32 0, i32 2
  %10 = load i64, ptr %count9, align 8
  %add10 = add i64 %10, 1
  store i64 %add10, ptr %count9, align 8
  br label %if.end

if.end:                                           ; preds = %if.then, %entry
  ret void
}

; Function Attrs: mustprogress uwtable
define linkonce_odr hidden void @_ZN8facebook3jsi19DecoratedHostObject3getERNS0_7RuntimeERKNS0_10PropNameIDE(ptr noalias sret(%"class.facebook::jsi::Value") align 8 %agg.result, ptr noundef nonnull align 8 dereferenceable(32) %this, ptr noundef nonnull align 8 dereferenceable(8) %0, ptr noundef nonnull align 8 dereferenceable(8) %name) unnamed_addr #0 comdat align 2 {
entry:
  %result.ptr = alloca ptr, align 8
  %this.addr = alloca ptr, align 8
  %.addr = alloca ptr, align 8
  %name.addr = alloca ptr, align 8
  store ptr %agg.result, ptr %result.ptr, align 8
  store ptr %this, ptr %this.addr, align 8
  store ptr %0, ptr %.addr, align 8
  store ptr %name, ptr %name.addr, align 8
  %this1 = load ptr, ptr %this.addr, align 8
  %plainHO_ = getelementptr inbounds %"class.facebook::jsi::DecoratedHostObject", ptr %this1, i32 0, i32 2
  %call = call noundef ptr @_ZNKSt19__shared_ptr_accessIN8facebook3jsi10HostObjectELN9__gnu_cxx12_Lock_policyE2ELb0ELb0EEptEv(ptr noundef nonnull align 1 dereferenceable(1) %plainHO_) #14
  %call2 = call noundef nonnull align 8 dereferenceable(8) ptr @_ZN8facebook3jsi19DecoratedHostObject16decoratedRuntimeEv(ptr noundef nonnull align 8 dereferenceable(32) %this1)
  %1 = load ptr, ptr %name.addr, align 8
  %vtable = load ptr, ptr %call, align 8
  %vfn = getelementptr inbounds ptr, ptr %vtable, i64 2
  %2 = load ptr, ptr %vfn, align 8
  call void %2(ptr sret(%"class.facebook::jsi::Value") align 8 %agg.result, ptr noundef nonnull align 8 dereferenceable(8) %call, ptr noundef nonnull align 8 dereferenceable(8) %call2, ptr noundef nonnull align 8 dereferenceable(8) %1)
  ret void
}

; Function Attrs: mustprogress uwtable
define internal void @_ZN8facebook6hermes12_GLOBAL__N_112RuntimeStats13outgoingTimerEPKc(ptr noalias sret(%"class.facebook::hermes::(anonymous namespace)::RuntimeStats::RAIITimer") align 8 %agg.result, ptr noundef nonnull align 8 dereferenceable(80) %this, ptr noundef %name) #0 align 2 {
entry:
  %result.ptr = alloca ptr, align 8
  %this.addr = alloca ptr, align 8
  %name.addr = alloca ptr, align 8
  store ptr %agg.result, ptr %result.ptr, align 8
  store ptr %this, ptr %this.addr, align 8
  store ptr %name, ptr %name.addr, align 8
  %this1 = load ptr, ptr %this.addr, align 8
  %0 = load ptr, ptr %name.addr, align 8
  %outgoing_ = getelementptr inbounds %"class.facebook::hermes::(anonymous namespace)::RuntimeStats", ptr %this1, i32 0, i32 0
  call void @_ZN8facebook6hermes12_GLOBAL__N_112RuntimeStats9RAIITimerC2EPKcRS2_RNS2_9StatisticE(ptr noundef nonnull align 8 dereferenceable(48) %agg.result, ptr noundef %0, ptr noundef nonnull align 8 dereferenceable(80) %this1, ptr noundef nonnull align 8 dereferenceable(24) %outgoing_)
  ret void
}

; Function Attrs: mustprogress uwtable
define internal void @_ZN8facebook6hermes12_GLOBAL__N_115TimedHostObject3getERNS_3jsi7RuntimeERKNS3_10PropNameIDE(ptr noalias sret(%"class.facebook::jsi::Value") align 8 %agg.result, ptr noundef nonnull align 8 dereferenceable(40) %this, ptr noundef nonnull align 8 dereferenceable(8) %rt, ptr noundef nonnull align 8 dereferenceable(8) %name) unnamed_addr #0 align 2 personality ptr @__gxx_personality_v0 {
entry:
  %result.ptr = alloca ptr, align 8
  %this.addr = alloca ptr, align 8
  %rt.addr = alloca ptr, align 8
  %name.addr = alloca ptr, align 8
  %timer = alloca %"class.facebook::hermes::(anonymous namespace)::RuntimeStats::RAIITimer", align 8
  %exn.slot = alloca ptr, align 8
  %ehselector.slot = alloca i32, align 4
  store ptr %agg.result, ptr %result.ptr, align 8
  store ptr %this, ptr %this.addr, align 8
  store ptr %rt, ptr %rt.addr, align 8
  store ptr %name, ptr %name.addr, align 8
  %this1 = load ptr, ptr %this.addr, align 8
  %rts_ = getelementptr inbounds %"class.facebook::hermes::(anonymous namespace)::TimedHostObject", ptr %this1, i32 0, i32 1
  %0 = load ptr, ptr %rts_, align 8
  call void @_ZN8facebook6hermes12_GLOBAL__N_112RuntimeStats13outgoingTimerEPKc(ptr sret(%"class.facebook::hermes::(anonymous namespace)::RuntimeStats::RAIITimer") align 8 %timer, ptr noundef nonnull align 8 dereferenceable(80) %0, ptr noundef @.str.18)
  %1 = load ptr, ptr %rt.addr, align 8
  %2 = load ptr, ptr %name.addr, align 8
  invoke void @_ZN8facebook3jsi19DecoratedHostObject3getERNS0_7RuntimeERKNS0_10PropNameIDE(ptr sret(%"class.facebook::jsi::Value") align 8 %agg.result, ptr noundef nonnull align 8 dereferenceable(32) %this1, ptr noundef nonnull align 8 dereferenceable(8) %1, ptr noundef nonnull align 8 dereferenceable(8) %2)
          to label %invoke.cont unwind label %lpad

invoke.cont:                                      ; preds = %entry
  call void @_ZN8facebook6hermes12_GLOBAL__N_112RuntimeStats9RAIITimerD2Ev(ptr noundef nonnull align 8 dereferenceable(48) %timer) #14
  ret void

lpad:                                             ; preds = %entry
  %3 = landingpad { ptr, i32 }
          cleanup
  %4 = extractvalue { ptr, i32 } %3, 0
  store ptr %4, ptr %exn.slot, align 8
  %5 = extractvalue { ptr, i32 } %3, 1
  store i32 %5, ptr %ehselector.slot, align 4
  call void @_ZN8facebook6hermes12_GLOBAL__N_112RuntimeStats9RAIITimerD2Ev(ptr noundef nonnull align 8 dereferenceable(48) %timer) #14
  br label %eh.resume

eh.resume:                                        ; preds = %lpad
  %exn = load ptr, ptr %exn.slot, align 8
  %sel = load i32, ptr %ehselector.slot, align 4
  %lpad.val = insertvalue { ptr, i32 } poison, ptr %exn, 0
  %lpad.val2 = insertvalue { ptr, i32 } %lpad.val, i32 %sel, 1
  resume { ptr, i32 } %lpad.val2
}